(dp1
S'output'
p2
S"<type 'exceptions.AttributeError'> 'NoneType' object has no attribute 'email'"
p3
sS'layer'
p4
S'/home/kanv/web2py/applications/LibManage/controllers/default.py'
p5
sS'code'
p6
S'# -*- coding: utf-8 -*-\n# this file is released under public domain and you can use without limitations\n\n#########################################################################\n## This is a sample controller\n## - index is the default action of any application\n## - user is required for authentication and authorization\n## - download is for downloading files uploaded in the db (does streaming)\n## - api is an example of Hypermedia API support and access control\n#########################################################################\ndef mean():\n    grid = SQLFORM.grid(db.Book_List)\n    return locals()\n    \n@auth.requires_login()\ndef index():\n    rows = db(db.Book_List).select()\n    return locals()\n\n@auth.requires_membership(\'managers\')\ndef manage():\n    grid = SQLFORM.grid(db.Book_List)\n    return locals()\n@auth.requires_membership(\'managers\')\ndef manage1():\n    grid = SQLFORM.grid(db.Issue_table)\n    return locals()\n@auth.requires_membership(\'managers\')\ndef create():\n    form = SQLFORM(db.Book_List).process()\n    return locals()\ndef show1():\n    columns = db(db.Issue_table.E_Mail==auth.user.email).select()\n    return locals()\ndef user():\n    """\n    exposes:\n    http://..../[app]/default/user/login\n    http://..../[app]/default/user/logout\n    http://..../[app]/default/user/register\n    http://..../[app]/default/user/profile\n    http://..../[app]/default/user/retrieve_password\n    http://..../[app]/default/user/change_password\n    http://..../[app]/default/user/manage_users (requires membership in\n    use @auth.requires_login()\n        @auth.requires_membership(\'group name\')\n        @auth.requires_permission(\'read\',\'table name\',record_id)\n    to decorate functions that need access control\n    """\n    return dict(form=auth())\n\n\n@cache.action()\ndef download():\n    """\n    allows downloading of uploaded files\n    http://..../[app]/default/download/[filename]\n    """\n    return response.download(request, db)\n\n\ndef call():\n    """\n    exposes services. for example:\n    http://..../[app]/default/call/jsonrpc\n    decorate with @services.jsonrpc the functions to expose\n    supports xml, json, xmlrpc, jsonrpc, amfrpc, rss, csv\n    """\n    return service()\n\n\n@auth.requires_login() \ndef api():\n    """\n    this is example of API with access control\n    WEB2PY provides Hypermedia API (Collection+JSON) Experimental\n    """\n    from gluon.contrib.hypermedia import Collection\n    rules = {\n        \'<tablename>\': {\'GET\':{},\'POST\':{},\'PUT\':{},\'DELETE\':{}},\n        }\n    return Collection(db).process(request,response,rules)\n\nresponse._vars=response._caller(show1)\n'
p7
sS'snapshot'
p8
(dp9
sS'traceback'
p10
S'Traceback (most recent call last):\n  File "/home/kanv/web2py/gluon/restricted.py", line 224, in restricted\n    exec ccode in environment\n  File "/home/kanv/web2py/applications/LibManage/controllers/default.py", line 84, in <module>\n  File "/home/kanv/web2py/gluon/globals.py", line 392, in <lambda>\n    self._caller = lambda f: f()\n  File "/home/kanv/web2py/applications/LibManage/controllers/default.py", line 33, in show1\n    columns = db(db.Issue_table.E_Mail==auth.user.email).select()\nAttributeError: \'NoneType\' object has no attribute \'email\'\n'
p11
s.